target datalayout = "e-m:e-p270:32:32-p271:32:32-p272:64:64-i64:64-i128:128-f80:128-n8:16:32:64-S128"
target triple = "x86_64-pc-linux-gnu"

%struct.FLAC__OggEncoderAspect = type { i64, i32, %struct.ogg_stream_state, %struct.ogg_page, i32, i32, i64, i64 }
%struct.ogg_stream_state = type { ptr, i64, i64, i64, ptr, ptr, i64, i64, i64, i64, [282 x i8], i32, i32, i32, i64, i64, i64, i64 }
%struct.ogg_page = type { ptr, i64, ptr, i64 }

; Function Attrs: nounwind sspstrong uwtable
define hidden i32 @FLAC__ogg_encoder_aspect_init(ptr noundef %0) #0 {
  %2 = alloca i32, align 4
  %3 = alloca ptr, align 8
  store ptr %0, ptr %3, align 8, !tbaa !3
  %4 = load ptr, ptr %3, align 8, !tbaa !3
  %5 = getelementptr inbounds nuw %struct.FLAC__OggEncoderAspect, ptr %4, i32 0, i32 2
  %6 = load ptr, ptr %3, align 8, !tbaa !3
  %7 = getelementptr inbounds nuw %struct.FLAC__OggEncoderAspect, ptr %6, i32 0, i32 0
  %8 = load i64, ptr %7, align 8, !tbaa !8
  %9 = trunc i64 %8 to i32
  %10 = call i32 @ogg_stream_init(ptr noundef %5, i32 noundef %9)
  %11 = icmp ne i32 %10, 0
  br i1 %11, label %12, label %13

12:                                               ; preds = %1
  store i32 0, ptr %2, align 4
  br label %22

13:                                               ; preds = %1
  %14 = load ptr, ptr %3, align 8, !tbaa !3
  %15 = getelementptr inbounds nuw %struct.FLAC__OggEncoderAspect, ptr %14, i32 0, i32 4
  store i32 0, ptr %15, align 8, !tbaa !17
  %16 = load ptr, ptr %3, align 8, !tbaa !3
  %17 = getelementptr inbounds nuw %struct.FLAC__OggEncoderAspect, ptr %16, i32 0, i32 5
  store i32 1, ptr %17, align 4, !tbaa !18
  %18 = load ptr, ptr %3, align 8, !tbaa !3
  %19 = getelementptr inbounds nuw %struct.FLAC__OggEncoderAspect, ptr %18, i32 0, i32 6
  store i64 0, ptr %19, align 8, !tbaa !19
  %20 = load ptr, ptr %3, align 8, !tbaa !3
  %21 = getelementptr inbounds nuw %struct.FLAC__OggEncoderAspect, ptr %20, i32 0, i32 7
  store i64 0, ptr %21, align 8, !tbaa !20
  store i32 1, ptr %2, align 4
  br label %22

22:                                               ; preds = %13, %12
  %23 = load i32, ptr %2, align 4
  ret i32 %23
}