; Function Attrs: nounwind sspstrong uwtable
define hidden range(i32 0, 2) i32 @FLAC__ogg_encoder_aspect_init(ptr noundef %0) local_unnamed_addr #0 {
  %2 = getelementptr inbounds nuw i8, ptr %0, i64 16
  %3 = load i64, ptr %0, align 8, !tbaa !3
  %4 = trunc i64 %3 to i32
  %5 = tail call i32 @ogg_stream_init(ptr noundef nonnull %2, i32 noundef %4) #8
  %.not = icmp eq i32 %5, 0
  br i1 %.not, label %6, label %10

6:                                                ; preds = %1
  %7 = getelementptr inbounds nuw i8, ptr %0, i64 456
  store i32 0, ptr %7, align 8, !tbaa !15
  %8 = getelementptr inbounds nuw i8, ptr %0, i64 460
  store i32 1, ptr %8, align 4, !tbaa !16
  %9 = getelementptr inbounds nuw i8, ptr %0, i64 464
  tail call void @llvm.memset.p0.i64(ptr noundef nonnull align 8 dereferenceable(16) %9, i8 0, i64 16, i1 false)
  br label %10

10:                                               ; preds = %1, %6
  %.0 = phi i32 [ 1, %6 ], [ 0, %1 ]
  ret i32 %.0
}